; Function Attrs: mustprogress nounwind uwtable
define hidden void @_ZNK12storeSSDNode4emitEP17C2_MacroAssemblerP13PhaseRegAlloc(ptr noundef nonnull align 8 dereferenceable(80) %0, ptr noundef %1, ptr noundef %2) unnamed_addr #3 align 2 {
  %4 = alloca %class.Address, align 8
  %5 = alloca %class.Address, align 8
  %6 = alloca %class.Address, align 16
  %7 = getelementptr inbounds i8, ptr %0, i64 64
  %8 = load ptr, ptr %7, align 8
  %9 = load ptr, ptr %8, align 8
  %10 = getelementptr inbounds i8, ptr %9, i64 128
  %11 = load ptr, ptr %10, align 8
  %12 = tail call noundef i32 %11(ptr noundef nonnull align 8 dereferenceable(8) %8, ptr noundef %2, ptr noundef nonnull %0, i32 noundef 0) #23
  store <4 x i32> <i32 4, i32 -1, i32 -1, i32 -1>, ptr %6, align 16
  %13 = getelementptr inbounds i8, ptr %6, i64 16
  store i32 %12, ptr %13, align 16
  %14 = getelementptr inbounds i8, ptr %6, i64 20
  store i8 0, ptr %14, align 4
  %15 = getelementptr inbounds i8, ptr %6, i64 24
  store ptr getelementptr inbounds inrange(-16, 72) (i8, ptr @_ZTV10Relocation, i64 16), ptr %15, align 8
  %16 = getelementptr inbounds i8, ptr %6, i64 32
  store ptr null, ptr %16, align 16
  %17 = getelementptr inbounds i8, ptr %6, i64 40
  store i32 0, ptr %17, align 8
  %18 = getelementptr inbounds i8, ptr %0, i64 72
  %19 = load ptr, ptr %18, align 8
  %20 = load ptr, ptr %19, align 8
  %21 = getelementptr inbounds i8, ptr %20, i64 40
  %22 = load ptr, ptr %21, align 8
  %23 = tail call noundef i32 %22(ptr noundef nonnull align 8 dereferenceable(8) %19, ptr noundef %2, ptr noundef nonnull %0, i32 noundef 1) #23
  %or.cond.i.i = icmp ult i32 %23, 32
  %spec.select.i.i = select i1 %or.cond.i.i, i32 %23, i32 -1
  call void @llvm.lifetime.start.p0(i64 64, ptr nonnull %5)
  call void @llvm.memcpy.p0.p0.i64(ptr noundef nonnull align 8 dereferenceable(21) %5, ptr noundef nonnull align 16 dereferenceable(21) %6, i64 21, i1 false)
  %24 = getelementptr inbounds i8, ptr %5, i64 24
  %25 = load ptr, ptr getelementptr inbounds inrange(-32, 56) (i8, ptr @_ZTV10Relocation, i64 32), align 8
  call void %25(ptr noundef nonnull align 8 dereferenceable(20) %15, ptr noundef nonnull align 8 dereferenceable(40) %24) #23
  call void @llvm.lifetime.start.p0(i64 64, ptr nonnull %4)
  call void @llvm.memcpy.p0.p0.i64(ptr noundef nonnull align 8 dereferenceable(21) %4, ptr noundef nonnull align 8 dereferenceable(21) %5, i64 21, i1 false)
  %26 = getelementptr inbounds i8, ptr %4, i64 24
  %27 = load ptr, ptr %24, align 8
  %28 = getelementptr inbounds i8, ptr %27, i64 16
  %29 = load ptr, ptr %28, align 8
  call void %29(ptr noundef nonnull align 8 dereferenceable(20) %24, ptr noundef nonnull align 8 dereferenceable(40) %26) #23
  call void @_ZN9Assembler5movsdE7Address11XMMRegister(ptr noundef nonnull align 8 dereferenceable(40) %1, ptr noundef nonnull %4, i32 %spec.select.i.i) #23
  call void @llvm.lifetime.end.p0(i64 64, ptr nonnull %4)
  call void @llvm.lifetime.end.p0(i64 64, ptr nonnull %5)
  ret void
}